(dp0
S'216'
p1
S'BIGS'
p2
sS'217'
p3
S'GREAT VALUE'
p4
sS'214'
p5
S'PLANTERS'
p6
sS'215'
p7
S'BIGS'
p8
sS'212'
p9
S'WONDERFUL'
p10
sS'213'
p11
S'GIANTS'
p12
sS'210'
p13
S'GREAT VALUE'
p14
sS'211'
p15
S'BEER NUTS'
p16
sS'165'
p17
S'SECOND NATURE'
p18
sS'218'
p19
S'PLANTERS'
p20
sS'219'
p21
S'SUPERIOR NUT COMPANY'
p22
sS'133'
p23
S'SUN MAID'
p24
sS'132'
p25
S'GREAT VALUE'
p26
sS'131'
p27
S'PLANTERS'
p28
sS'130'
p29
S'BLUE DIAMOND'
p30
sS'137'
p31
S'SUN MAID'
p32
sS'136'
p33
S'WONDERFUL'
p34
sS'135'
p35
S'GREAT VALUE'
p36
sS'134'
p37
S'BLUE DIAMOND'
p38
sS'139'
p39
S'WONDERFUL'
p40
sS'138'
p41
S'MEDALLION'
p42
sS'166'
p43
S'BLUE DIAMOND'
p44
sS'24'
p45
S'GREAT VALUE'
p46
sS'25'
p47
S'GREAT VALUE'
p48
sS'26'
p49
S'GREAT VALUE'
p50
sS'27'
p51
S'FISHER'
p52
sS'20'
p53
S'KARS'
p54
sS'21'
p55
S'SUN MAID'
p56
sS'22'
p57
S'GREAT VALUE'
p58
sS'23'
p59
S'GREAT VALUE ORGANIC'
p60
sS'160'
p61
S'BLUE DIAMOND'
p62
sS'28'
p63
S'BLUE DIAMOND'
p64
sS'29'
p65
S'PLANTERS'
p66
sS'161'
p67
S'PLANTERS'
p68
sS'0'
p69
S'DAVID'
p70
sS'4'
p71
S'PIZOOTZ'
p72
sS'8'
p73
S'PLANTERS'
p74
sS'163'
p75
S'GREAT VALUE'
p76
sS'119'
p77
S'PLANTERS'
p78
sS'120'
p79
S'GREAT VALUE'
p80
sS'121'
p81
S'SUNSWEET'
p82
sS'122'
p83
S'EMERALD'
p84
sS'123'
p85
S'SUN MAID'
p86
sS'124'
p87
S'PLANTERS'
p88
sS'125'
p89
S'GREAT VALUE'
p90
sS'126'
p91
S'GREAT VALUE'
p92
sS'127'
p93
S'EMERALD'
p94
sS'128'
p95
S'GREAT VALUE'
p96
sS'129'
p97
S'PLANTERS'
p98
sS'167'
p99
S'WONDERFUL'
p100
sS'118'
p101
S'SUPERIOR NUT COMPANY'
p102
sS'59'
p103
S'GREAT VALUE'
p104
sS'58'
p105
S'GREAT VALUE'
p106
sS'55'
p107
S'SUN MAID'
p108
sS'54'
p109
S'PLANTERS'
p110
sS'57'
p111
S'BLUE DIAMOND'
p112
sS'56'
p113
S'KARS'
p114
sS'51'
p115
S'GREAT VALUE'
p116
sS'50'
p117
S'PLANTERS'
p118
sS'53'
p119
S'PEANUT PATCH'
p120
sS'52'
p121
S'GREAT VALUE'
p122
sS'164'
p123
S'GREAT VALUE'
p124
sS'201'
p125
S'SUPERIOR NUT COMPANY'
p126
sS'199'
p127
S'BLUE DIAMOND'
p128
sS'179'
p129
S'ORCHARD FRESH'
p130
sS'200'
p131
S'BLUE DIAMOND'
p132
sS'195'
p133
S'FISHER'
p134
sS'194'
p135
S'PLANTERS'
p136
sS'197'
p137
S'GREAT VALUE'
p138
sS'178'
p139
S'GREAT VALUE'
p140
sS'191'
p141
S'PLANTERS'
p142
sS'190'
p143
S'GREAT VALUE'
p144
sS'193'
p145
S'MEDALLION'
p146
sS'192'
p147
S'GREAT VALUE'
p148
sS'115'
p149
S'GREAT VALUE'
p150
sS'114'
p151
S'GREAT VALUE'
p152
sS'88'
p153
S'GREAT VALUE'
p154
sS'89'
p155
S'GREAT VALUE'
p156
sS'111'
p157
S'GREAT VALUE'
p158
sS'110'
p159
S'PLANTERS'
p160
sS'113'
p161
S'BLUE DIAMOND'
p162
sS'112'
p163
S'SUN MAID'
p164
sS'82'
p165
S'CORN NUTS'
p166
sS'83'
p167
S'GREAT VALUE'
p168
sS'80'
p169
S'GREAT VALUE'
p170
sS'81'
p171
S'GREAT VALUE'
p172
sS'86'
p173
S'KARS'
p174
sS'87'
p175
S'WONDERFUL'
p176
sS'84'
p177
S'PLANTERS'
p178
sS'85'
p179
S'BLUE DIAMOND'
p180
sS'251'
p181
S'PIZOOTZ'
p182
sS'198'
p183
S'WHOLESOME MEDLEY'
p184
sS'256'
p185
S'BIGS'
p186
sS'206'
p187
S'ORCHARD FRESH'
p188
sS'226'
p189
S'BLUE DIAMOND'
p190
sS'257'
p191
S'BLUE DIAMOND'
p192
sS'3'
p193
S'BLUE DIAMOND'
p194
sS'177'
p195
S'CORN NUTS'
p196
sS'254'
p197
S'BLUE DIAMOND'
p198
sS'7'
p199
S'OCEAN SPRAY'
p200
sS'247'
p201
S'GREAT VALUE'
p202
sS'255'
p203
S'PLANTERS'
p204
sS'225'
p205
S'OCEAN SPRAY'
p206
sS'245'
p207
S'GREAT VALUE'
p208
sS'244'
p209
S'OCEAN SPRAY'
p210
sS'108'
p211
S'PLANTERS'
p212
sS'109'
p213
S'SUN MAID'
p214
sS'241'
p215
S'SAHALE SNACKS'
p216
sS'240'
p217
S'SUNSWEET'
p218
sS'243'
p219
S'MAUNA LOA'
p220
sS'242'
p221
S'PLANTERS'
p222
sS'102'
p223
S'BLUE DIAMOND'
p224
sS'103'
p225
S'GREAT VALUE'
p226
sS'100'
p227
S'PLANTERS'
p228
sS'101'
p229
S'GREAT VALUE'
p230
sS'106'
p231
S'PLANTERS'
p232
sS'107'
p233
S'GREAT VALUE'
p234
sS'104'
p235
S'CREATIVE SNACKS CO'
p236
sS'105'
p237
S'SUN MAID'
p238
sS'39'
p239
S'GREAT VALUE'
p240
sS'38'
p241
S'MARIANI'
p242
sS'33'
p243
S'POWER UP'
p244
sS'32'
p245
S'OCEAN SPRAY'
p246
sS'31'
p247
S'GREAT VALUE'
p248
sS'30'
p249
S'SUNSHINE COUNTRY'
p250
sS'37'
p251
S'PLANTERS'
p252
sS'36'
p253
S'GOURMET'
p254
sS'35'
p255
S'BLUE DIAMOND'
p256
sS'34'
p257
S'HAMPTON FARMS'
p258
sS'246'
p259
S'EMERALD'
p260
sS'252'
p261
S'GREAT VALUE'
p262
sS'205'
p263
S'GREAT VALUE'
p264
sS'223'
p265
S'GREAT VALUE'
p266
sS'176'
p267
S'WONDERFUL'
p268
sS'60'
p269
S'PLANTERS'
p270
sS'61'
p271
S'GREAT VALUE'
p272
sS'62'
p273
S'PIZOOTZ'
p274
sS'63'
p275
S'PLANTERS'
p276
sS'64'
p277
S'CORN NUTS'
p278
sS'65'
p279
S'EMERALD'
p280
sS'66'
p281
S'SAHALE SNACKS'
p282
sS'67'
p283
S'BLUE DIAMOND'
p284
sS'68'
p285
S'GREAT VALUE'
p286
sS'69'
p287
S'OCEAN SPRAY'
p288
sS'175'
p289
S'GREAT VALUE'
p290
sS'174'
p291
S'GREAT VALUE'
p292
sS'173'
p293
S'BLUE DIAMOND'
p294
sS'172'
p295
S'PLANTERS'
p296
sS'171'
p297
S'GREAT VALUE'
p298
sS'170'
p299
S'WONDERFUL'
p300
sS'203'
p301
S'GREAT VALUE'
p302
sS'222'
p303
S'SUNSWEET'
p304
sS'181'
p305
S'GREAT VALUE'
p306
sS'253'
p307
S'GREAT VALUE'
p308
sS'248'
p309
S'BLUE DIAMOND'
p310
sS'182'
p311
S'BLUE DIAMOND'
p312
sS'183'
p313
S'MAUNA LOA'
p314
sS'180'
p315
S'OLD DOMINION'
p316
sS'2'
p317
S'WONDERFUL'
p318
sS'162'
p319
S'MEDALLION'
p320
sS'187'
p321
S'GREAT VALUE'
p322
sS'184'
p323
S'GIANTS'
p324
sS'6'
p325
S'BEER NUTS'
p326
sS'220'
p327
S'DAVID'
p328
sS'186'
p329
S'PLANTERS'
p330
sS'188'
p331
S'BLUE DIAMOND'
p332
sS'189'
p333
S'BLUE DIAMOND'
p334
sS'202'
p335
S'GREAT VALUE'
p336
sS'196'
p337
S'CREATIVE SNACKS CO'
p338
sS'221'
p339
S'GREAT VALUE'
p340
sS'185'
p341
S'GREAT VALUE'
p342
sS'99'
p343
S'PLANTERS'
p344
sS'98'
p345
S'GREAT VALUE'
p346
sS'168'
p347
S'BLUE DIAMOND'
p348
sS'169'
p349
S'BLUE DIAMOND'
p350
sS'229'
p351
S'EMERALD'
p352
sS'228'
p353
S'BLUE DIAMOND'
p354
sS'91'
p355
S'EMERALD'
p356
sS'90'
p357
S'GREAT VALUE'
p358
sS'93'
p359
S'GREAT VALUE'
p360
sS'92'
p361
S'PLANTERS'
p362
sS'95'
p363
S'PLANTERS'
p364
sS'94'
p365
S'GREAT VALUE'
p366
sS'97'
p367
S'GREAT VALUE'
p368
sS'96'
p369
S'GREAT VALUE'
p370
sS'11'
p371
S'GREAT VALUE'
p372
sS'10'
p373
S'GREAT VALUE'
p374
sS'13'
p375
S'PLANTERS'
p376
sS'12'
p377
S'GREAT VALUE'
p378
sS'15'
p379
S'EMERALD'
p380
sS'14'
p381
S'WONDERFUL'
p382
sS'17'
p383
S'GREAT VALUE'
p384
sS'16'
p385
S'EMERALD'
p386
sS'19'
p387
S'POWER UP'
p388
sS'18'
p389
S'SUPERIOR NUT COMPANY'
p390
sS'117'
p391
S'PLANTERS'
p392
sS'250'
p393
S'SUNSWEET'
p394
sS'116'
p395
S'GREAT VALUE'
p396
sS'204'
p397
S'GREAT VALUE'
p398
sS'151'
p399
S'GREAT VALUE'
p400
sS'150'
p401
S'BLUE DIAMOND'
p402
sS'153'
p403
S'MAUNA LOA'
p404
sS'152'
p405
S'SUN MAID'
p406
sS'155'
p407
S'GREAT VALUE'
p408
sS'154'
p409
S'MARIANI'
p410
sS'157'
p411
S'GREAT VALUE'
p412
sS'156'
p413
S'PLANTERS'
p414
sS'159'
p415
S'EMERALD'
p416
sS'158'
p417
S'GREAT VALUE'
p418
sS'234'
p419
S'BIENA'
p420
sS'238'
p421
S'GREAT VALUE'
p422
sS'239'
p423
S'SUNSWEET'
p424
sS'207'
p425
S'PLANTERS'
p426
sS'235'
p427
S'BLUE DIAMOND'
p428
sS'236'
p429
S'GREAT VALUE'
p430
sS'237'
p431
S'PLANTERS'
p432
sS'230'
p433
S'GREAT VALUE'
p434
sS'231'
p435
S'PLANTERS'
p436
sS'232'
p437
S'GREAT VALUE'
p438
sS'233'
p439
S'SUNSWEET'
p440
sS'224'
p441
S'GREAT VALUE'
p442
sS'48'
p443
S'PLANTERS'
p444
sS'49'
p445
S'GREAT VALUE'
p446
sS'46'
p447
S'GREAT VALUE'
p448
sS'47'
p449
S'BLUE DIAMOND'
p450
sS'44'
p451
S'GREAT VALUE'
p452
sS'45'
p453
S'PLANTERS'
p454
sS'42'
p455
S'PLANTERS'
p456
sS'43'
p457
S'OLD DOMINION'
p458
sS'40'
p459
S'PLANTERS'
p460
sS'41'
p461
S'GREAT VALUE'
p462
sS'1'
p463
S'CORN NUTS'
p464
sS'5'
p465
S'PREMIUM'
p466
sS'9'
p467
S'PLANTERS P3'
p468
sS'146'
p469
S'SAHALE SNACKS'
p470
sS'147'
p471
S'OCEAN SPRAY'
p472
sS'144'
p473
S'GREAT VALUE'
p474
sS'145'
p475
S'PLANTERS'
p476
sS'142'
p477
S'PEANUT PATCH'
p478
sS'143'
p479
S'GREAT VALUE'
p480
sS'140'
p481
S'GREAT VALUE'
p482
sS'141'
p483
S'GREAT VALUE'
p484
sS'209'
p485
S'PLANTERS'
p486
sS'208'
p487
S'PLANTERS'
p488
sS'148'
p489
S'PLANTERS'
p490
sS'149'
p491
S'PLANTERS'
p492
sS'77'
p493
S'GREAT VALUE'
p494
sS'76'
p495
S'THE GOOD BEAN'
p496
sS'75'
p497
S'GREAT VALUE'
p498
sS'74'
p499
S'POWER UP'
p500
sS'73'
p501
S'GREAT VALUE'
p502
sS'72'
p503
S'GREAT VALUE'
p504
sS'71'
p505
S'PLANTERS'
p506
sS'70'
p507
S'GREAT VALUE'
p508
sS'79'
p509
S'OLD DOMINION'
p510
sS'78'
p511
S'GREAT VALUE'
p512
sS'249'
p513
S'GREAT VALUE'
p514
sS'227'
p515
S'GREAT VALUE'
p516
s.